
build/output.elf:     file format elf32-littlearm


Disassembly of section .init:

00000000 <_start>:
   0:	ea0020f3 	b	83d4 <main>

Disassembly of section .text:

00008000 <SetForeColour>:
    8000:	e3500801 	cmp	r0, #65536	; 0x10000
    8004:	81a0f00e 	movhi	pc, lr
    8008:	01a0f00e 	moveq	pc, lr
    800c:	e59f11b8 	ldr	r1, [pc, #440]	; 81cc <stringLoopEnd$+0x4>
    8010:	e1c100b0 	strh	r0, [r1]
    8014:	e1a0f00e 	mov	pc, lr

00008018 <SetGraphicsAddress>:
    8018:	e59f11b0 	ldr	r1, [pc, #432]	; 81d0 <stringLoopEnd$+0x8>
    801c:	e5810000 	str	r0, [r1]
    8020:	e1a0f00e 	mov	pc, lr

00008024 <DrawPixel>:
    8024:	e59f21a4 	ldr	r2, [pc, #420]	; 81d0 <stringLoopEnd$+0x8>
    8028:	e5922000 	ldr	r2, [r2]
    802c:	e5923004 	ldr	r3, [r2, #4]
    8030:	e2433001 	sub	r3, r3, #1
    8034:	e1510003 	cmp	r1, r3
    8038:	81a0f00e 	movhi	pc, lr
    803c:	e5923000 	ldr	r3, [r2]
    8040:	e2433001 	sub	r3, r3, #1
    8044:	e1500003 	cmp	r0, r3
    8048:	81a0f00e 	movhi	pc, lr
    804c:	e5922020 	ldr	r2, [r2, #32]
    8050:	e2833001 	add	r3, r3, #1
    8054:	e0200391 	mla	r0, r1, r3, r0
    8058:	e0822080 	add	r2, r2, r0, lsl #1
    805c:	e59f3168 	ldr	r3, [pc, #360]	; 81cc <stringLoopEnd$+0x4>
    8060:	e1d330b0 	ldrh	r3, [r3]
    8064:	e1c230b0 	strh	r3, [r2]
    8068:	e1a0f00e 	mov	pc, lr

0000806c <DrawLine>:
    806c:	e92d5ff0 	push	{r4, r5, r6, r7, r8, r9, sl, fp, ip, lr}
    8070:	e1a09000 	mov	r9, r0
    8074:	e1a0a002 	mov	sl, r2
    8078:	e1a0b001 	mov	fp, r1
    807c:	e1a0c003 	mov	ip, r3
    8080:	e159000a 	cmp	r9, sl
    8084:	c049400a 	subgt	r4, r9, sl
    8088:	c3e06000 	mvngt	r6, #0
    808c:	d04a4009 	suble	r4, sl, r9
    8090:	d3a06001 	movle	r6, #1
    8094:	e15b000c 	cmp	fp, ip
    8098:	c04c500b 	subgt	r5, ip, fp
    809c:	c3e07000 	mvngt	r7, #0
    80a0:	d04b500c 	suble	r5, fp, ip
    80a4:	d3a07001 	movle	r7, #1
    80a8:	e0848005 	add	r8, r4, r5
    80ac:	e08aa006 	add	sl, sl, r6
    80b0:	e08cc007 	add	ip, ip, r7

000080b4 <pixelLoop$>:
    80b4:	e139000a 	teq	r9, sl
    80b8:	113b000c 	teqne	fp, ip
    80bc:	08bd9ff0 	popeq	{r4, r5, r6, r7, r8, r9, sl, fp, ip, pc}
    80c0:	e1a00009 	mov	r0, r9
    80c4:	e1a0100b 	mov	r1, fp
    80c8:	ebffffd5 	bl	8024 <DrawPixel>
    80cc:	e1550088 	cmp	r5, r8, lsl #1
    80d0:	d0888005 	addle	r8, r8, r5
    80d4:	d0899006 	addle	r9, r9, r6
    80d8:	e1540088 	cmp	r4, r8, lsl #1
    80dc:	a0888004 	addge	r8, r8, r4
    80e0:	a08bb007 	addge	fp, fp, r7
    80e4:	eafffff2 	b	80b4 <pixelLoop$>

000080e8 <DrawCharacter>:
    80e8:	e350007f 	cmp	r0, #127	; 0x7f
    80ec:	83a00000 	movhi	r0, #0
    80f0:	83a01000 	movhi	r1, #0
    80f4:	81a0f00e 	movhi	pc, lr
    80f8:	e92d41f0 	push	{r4, r5, r6, r7, r8, lr}
    80fc:	e1a04001 	mov	r4, r1
    8100:	e1a05002 	mov	r5, r2
    8104:	e59f60c8 	ldr	r6, [pc, #200]	; 81d4 <stringLoopEnd$+0xc>
    8108:	e0866200 	add	r6, r6, r0, lsl #4

0000810c <lineLoop$>:
    810c:	e5d67000 	ldrb	r7, [r6]
    8110:	e3a08008 	mov	r8, #8

00008114 <charPixelLoop$>:
    8114:	e2588001 	subs	r8, r8, #1
    8118:	ba000007 	blt	813c <charPixelLoopEnd$>
    811c:	e1a07087 	lsl	r7, r7, #1
    8120:	e3170c01 	tst	r7, #256	; 0x100
    8124:	0afffffa 	beq	8114 <charPixelLoop$>
    8128:	e0840008 	add	r0, r4, r8
    812c:	e1a01005 	mov	r1, r5
    8130:	ebffffbb 	bl	8024 <DrawPixel>
    8134:	e3380000 	teq	r8, #0
    8138:	1afffff5 	bne	8114 <charPixelLoop$>

0000813c <charPixelLoopEnd$>:
    813c:	e2855001 	add	r5, r5, #1
    8140:	e2866001 	add	r6, r6, #1
    8144:	e316000f 	tst	r6, #15
    8148:	1affffef 	bne	810c <lineLoop$>
    814c:	e3a00008 	mov	r0, #8
    8150:	e3a01010 	mov	r1, #16
    8154:	e8bd81f0 	pop	{r4, r5, r6, r7, r8, pc}

00008158 <DrawString>:
    8158:	e92d43f0 	push	{r4, r5, r6, r7, r8, r9, lr}
    815c:	e1a07000 	mov	r7, r0
    8160:	e1a04002 	mov	r4, r2
    8164:	e1a06004 	mov	r6, r4
    8168:	e1a05003 	mov	r5, r3
    816c:	e1a08001 	mov	r8, r1

00008170 <stringLoop$>:
    8170:	e2588001 	subs	r8, r8, #1
    8174:	ba000013 	blt	81c8 <stringLoopEnd$>
    8178:	e5d79000 	ldrb	r9, [r7]
    817c:	e2877001 	add	r7, r7, #1
    8180:	e1a00009 	mov	r0, r9
    8184:	e1a01004 	mov	r1, r4
    8188:	e1a02005 	mov	r2, r5
    818c:	ebffffd5 	bl	80e8 <DrawCharacter>
    8190:	e339000a 	teq	r9, #10
    8194:	01a04006 	moveq	r4, r6
    8198:	00855001 	addeq	r5, r5, r1
    819c:	0afffff3 	beq	8170 <stringLoop$>
    81a0:	e3390009 	teq	r9, #9
    81a4:	10844000 	addne	r4, r4, r0
    81a8:	1afffff0 	bne	8170 <stringLoop$>
    81ac:	e0800100 	add	r0, r0, r0, lsl #2
    81b0:	e1a01006 	mov	r1, r6

000081b4 <stringLoopTab$>:
    81b4:	e0811000 	add	r1, r1, r0
    81b8:	e1540001 	cmp	r4, r1
    81bc:	aafffffc 	bge	81b4 <stringLoopTab$>
    81c0:	e1a04001 	mov	r4, r1
    81c4:	eaffffe9 	b	8170 <stringLoop$>

000081c8 <stringLoopEnd$>:
    81c8:	e8bd83f0 	pop	{r4, r5, r6, r7, r8, r9, pc}
    81cc:	00009000 	.word	0x00009000
    81d0:	00009004 	.word	0x00009004
    81d4:	00009010 	.word	0x00009010

000081d8 <InitialiseFrameBuffer>:
    81d8:	e3500a01 	cmp	r0, #4096	; 0x1000
    81dc:	93510a01 	cmpls	r1, #4096	; 0x1000
    81e0:	93520020 	cmpls	r2, #32
    81e4:	83a00000 	movhi	r0, #0
    81e8:	81a0f00e 	movhi	pc, lr
    81ec:	e92d4010 	push	{r4, lr}
    81f0:	e59f4044 	ldr	r4, [pc, #68]	; 823c <pointerWait$+0x14>
    81f4:	e5840000 	str	r0, [r4]
    81f8:	e5841004 	str	r1, [r4, #4]
    81fc:	e5840008 	str	r0, [r4, #8]
    8200:	e584100c 	str	r1, [r4, #12]
    8204:	e5842014 	str	r2, [r4, #20]
    8208:	e1a00004 	mov	r0, r4
    820c:	e3a01001 	mov	r1, #1
    8210:	eb000053 	bl	8364 <MailboxWrite>
    8214:	e3a00001 	mov	r0, #1
    8218:	eb00005e 	bl	8398 <MailboxRead>
    821c:	e3300000 	teq	r0, #0
    8220:	13a00000 	movne	r0, #0
    8224:	18bd8010 	popne	{r4, pc}

00008228 <pointerWait$>:
    8228:	e5940020 	ldr	r0, [r4, #32]
    822c:	e3300000 	teq	r0, #0
    8230:	0afffffc 	beq	8228 <pointerWait$>
    8234:	e1a00004 	mov	r0, r4
    8238:	e8bd8010 	pop	{r4, pc}
    823c:	0000a000 	.word	0x0000a000

00008240 <GetGpioAddress>:
    8240:	e59f010c 	ldr	r0, [pc, #268]	; 8354 <BLINK_OK_FOR_TIME+0x1c>
    8244:	e1a0f00e 	mov	pc, lr

00008248 <SetGpioFunction>:
    8248:	e3500035 	cmp	r0, #53	; 0x35
    824c:	93510007 	cmpls	r1, #7
    8250:	81a0f00e 	movhi	pc, lr
    8254:	e92d4000 	push	{lr}
    8258:	e1a02000 	mov	r2, r0
    825c:	ebfffff7 	bl	8240 <GetGpioAddress>

00008260 <functionLoop$>:
    8260:	e3520009 	cmp	r2, #9
    8264:	8242200a 	subhi	r2, r2, #10
    8268:	82800004 	addhi	r0, r0, #4
    826c:	8afffffb 	bhi	8260 <functionLoop$>
    8270:	e0822082 	add	r2, r2, r2, lsl #1
    8274:	e1a01211 	lsl	r1, r1, r2
    8278:	e3a03007 	mov	r3, #7
    827c:	e1a03213 	lsl	r3, r3, r2
    8280:	e1e03003 	mvn	r3, r3
    8284:	e5902000 	ldr	r2, [r0]
    8288:	e0022003 	and	r2, r2, r3
    828c:	e1811002 	orr	r1, r1, r2
    8290:	e5801000 	str	r1, [r0]
    8294:	e8bd8000 	pop	{pc}

00008298 <SetGpio>:
    8298:	e3500035 	cmp	r0, #53	; 0x35
    829c:	81a0f00e 	movhi	pc, lr
    82a0:	e92d4000 	push	{lr}
    82a4:	e1a02000 	mov	r2, r0
    82a8:	ebffffe4 	bl	8240 <GetGpioAddress>
    82ac:	e1a032a2 	lsr	r3, r2, #5
    82b0:	e1a03103 	lsl	r3, r3, #2
    82b4:	e0800003 	add	r0, r0, r3
    82b8:	e202201f 	and	r2, r2, #31
    82bc:	e3a03001 	mov	r3, #1
    82c0:	e1a03213 	lsl	r3, r3, r2
    82c4:	e3310000 	teq	r1, #0
    82c8:	05803028 	streq	r3, [r0, #40]	; 0x28
    82cc:	1580301c 	strne	r3, [r0, #28]
    82d0:	e8bd8000 	pop	{pc}

000082d4 <BLINK_LED>:
    82d4:	e92d4000 	push	{lr}
    82d8:	e3a00010 	mov	r0, #16
    82dc:	e3a01001 	mov	r1, #1
    82e0:	ebffffd8 	bl	8248 <SetGpioFunction>
    82e4:	eb000003 	bl	82f8 <TURN_OK_ON>
    82e8:	e59f0068 	ldr	r0, [pc, #104]	; 8358 <BLINK_OK_FOR_TIME+0x20>
    82ec:	eb00005e 	bl	846c <SLEEP>
    82f0:	eb000008 	bl	8318 <TURN_OK_OFF>
    82f4:	e8bd8000 	pop	{pc}

000082f8 <TURN_OK_ON>:
    82f8:	e92d4000 	push	{lr}
    82fc:	e3a00010 	mov	r0, #16
    8300:	e3a01001 	mov	r1, #1
    8304:	ebffffcf 	bl	8248 <SetGpioFunction>
    8308:	e3a00010 	mov	r0, #16
    830c:	e3a01000 	mov	r1, #0
    8310:	ebffffe0 	bl	8298 <SetGpio>
    8314:	e8bd8000 	pop	{pc}

00008318 <TURN_OK_OFF>:
    8318:	e92d4000 	push	{lr}
    831c:	e3a00010 	mov	r0, #16
    8320:	e3a01001 	mov	r1, #1
    8324:	ebffffc7 	bl	8248 <SetGpioFunction>
    8328:	e3a00010 	mov	r0, #16
    832c:	e3a01001 	mov	r1, #1
    8330:	ebffffd8 	bl	8298 <SetGpio>
    8334:	e8bd8000 	pop	{pc}

00008338 <BLINK_OK_FOR_TIME>:
    8338:	e92d4000 	push	{lr}
    833c:	e1a03000 	mov	r3, r0
    8340:	ebffffec 	bl	82f8 <TURN_OK_ON>
    8344:	e1a00003 	mov	r0, r3
    8348:	eb000047 	bl	846c <SLEEP>
    834c:	ebfffff1 	bl	8318 <TURN_OK_OFF>
    8350:	e8bd8000 	pop	{pc}
    8354:	20200000 	.word	0x20200000
    8358:	0000ea60 	.word	0x0000ea60

0000835c <GetMailboxBase>:
    835c:	e59f006c 	ldr	r0, [pc, #108]	; 83d0 <rightmail$+0x24>
    8360:	e1a0f00e 	mov	pc, lr

00008364 <MailboxWrite>:
    8364:	e310000f 	tst	r0, #15
    8368:	11a0f00e 	movne	pc, lr
    836c:	e351000f 	cmp	r1, #15
    8370:	81a0f00e 	movhi	pc, lr
    8374:	e1a02000 	mov	r2, r0
    8378:	e92d4000 	push	{lr}
    837c:	ebfffff6 	bl	835c <GetMailboxBase>

00008380 <wait1$>:
    8380:	e5903018 	ldr	r3, [r0, #24]
    8384:	e3130102 	tst	r3, #-2147483648	; 0x80000000
    8388:	1afffffc 	bne	8380 <wait1$>
    838c:	e0822001 	add	r2, r2, r1
    8390:	e5802020 	str	r2, [r0, #32]
    8394:	e8bd8000 	pop	{pc}

00008398 <MailboxRead>:
    8398:	e350000f 	cmp	r0, #15
    839c:	81a0f00e 	movhi	pc, lr
    83a0:	e1a01000 	mov	r1, r0
    83a4:	e92d4000 	push	{lr}
    83a8:	ebffffeb 	bl	835c <GetMailboxBase>

000083ac <rightmail$>:
    83ac:	e5902018 	ldr	r2, [r0, #24]
    83b0:	e3120101 	tst	r2, #1073741824	; 0x40000000
    83b4:	1afffffc 	bne	83ac <rightmail$>
    83b8:	e5902000 	ldr	r2, [r0]
    83bc:	e202300f 	and	r3, r2, #15
    83c0:	e1330001 	teq	r3, r1
    83c4:	1afffff8 	bne	83ac <rightmail$>
    83c8:	e3c2000f 	bic	r0, r2, #15
    83cc:	e8bd8000 	pop	{pc}
    83d0:	2000b880 	.word	0x2000b880

000083d4 <main>:
    83d4:	e3a0d902 	mov	sp, #32768	; 0x8000
    83d8:	e3a00b01 	mov	r0, #1024	; 0x400
    83dc:	e3a01c03 	mov	r1, #768	; 0x300
    83e0:	e3a02010 	mov	r2, #16
    83e4:	ebffff7b 	bl	81d8 <InitialiseFrameBuffer>
    83e8:	e3300000 	teq	r0, #0
    83ec:	1a000006 	bne	840c <noError$>
    83f0:	e3a00010 	mov	r0, #16
    83f4:	e3a01001 	mov	r1, #1
    83f8:	ebffff92 	bl	8248 <SetGpioFunction>
    83fc:	e3a00010 	mov	r0, #16
    8400:	e3a01000 	mov	r1, #0
    8404:	ebffffa3 	bl	8298 <SetGpio>

00008408 <error$>:
    8408:	eafffffe 	b	8408 <error$>

0000840c <noError$>:
    840c:	e1a04000 	mov	r4, r0
    8410:	ebffff00 	bl	8018 <SetGraphicsAddress>
    8414:	e3a00009 	mov	r0, #9
    8418:	eb00001d 	bl	8494 <FindTag>
    841c:	e5901000 	ldr	r1, [r0]
    8420:	e1a01101 	lsl	r1, r1, #2
    8424:	e2411008 	sub	r1, r1, #8
    8428:	e2800008 	add	r0, r0, #8
    842c:	e3a02000 	mov	r2, #0
    8430:	e3a03000 	mov	r3, #0
    8434:	ebffff47 	bl	8158 <DrawString>

00008438 <loop$>:
    8438:	eafffffe 	b	8438 <loop$>

0000843c <Random>:
    843c:	e3a01cef 	mov	r1, #61184	; 0xef00
    8440:	e0010190 	mul	r1, r0, r1
    8444:	e0010190 	mul	r1, r0, r1
    8448:	e0811000 	add	r1, r1, r0
    844c:	e2810049 	add	r0, r1, #73	; 0x49
    8450:	e1a0f00e 	mov	pc, lr

00008454 <GetSystemTimerBase>:
    8454:	e59f0034 	ldr	r0, [pc, #52]	; 8490 <loop$+0x14>
    8458:	e1a0f00e 	mov	pc, lr

0000845c <GetTimeStamp>:
    845c:	e92d4000 	push	{lr}
    8460:	ebfffffb 	bl	8454 <GetSystemTimerBase>
    8464:	e1c000d4 	ldrd	r0, [r0, #4]
    8468:	e8bd8000 	pop	{pc}

0000846c <SLEEP>:
    846c:	e92d4000 	push	{lr}
    8470:	e1a02000 	mov	r2, r0
    8474:	ebfffff8 	bl	845c <GetTimeStamp>
    8478:	e1a03000 	mov	r3, r0

0000847c <loop$>:
    847c:	ebfffff6 	bl	845c <GetTimeStamp>
    8480:	e0401003 	sub	r1, r0, r3
    8484:	e1510002 	cmp	r1, r2
    8488:	9afffffb 	bls	847c <loop$>
    848c:	e8bd8000 	pop	{pc}
    8490:	20003000 	.word	0x20003000

00008494 <FindTag>:
    8494:	e2400001 	sub	r0, r0, #1
    8498:	e3500008 	cmp	r0, #8
    849c:	83a00000 	movhi	r0, #0
    84a0:	81a0f00e 	movhi	pc, lr
    84a4:	e59f1054 	ldr	r1, [pc, #84]	; 8500 <tagLoop$+0x2c>

000084a8 <tagReturn$>:
    84a8:	e0812100 	add	r2, r1, r0, lsl #2
    84ac:	e5922000 	ldr	r2, [r2]
    84b0:	e3320000 	teq	r2, #0
    84b4:	11a00002 	movne	r0, r2
    84b8:	11a0f00e 	movne	pc, lr
    84bc:	e5912000 	ldr	r2, [r1]
    84c0:	e3320000 	teq	r2, #0
    84c4:	13a00000 	movne	r0, #0
    84c8:	11a0f00e 	movne	pc, lr
    84cc:	e3a02c01 	mov	r2, #256	; 0x100
    84d0:	e92d0010 	push	{r4}

000084d4 <tagLoop$>:
    84d4:	e1d230b4 	ldrh	r3, [r2, #4]
    84d8:	e2533001 	subs	r3, r3, #1
    84dc:	b8bd0010 	poplt	{r4}
    84e0:	bafffff0 	blt	84a8 <tagReturn$>
    84e4:	e0813103 	add	r3, r1, r3, lsl #2
    84e8:	e5934000 	ldr	r4, [r3]
    84ec:	e3340000 	teq	r4, #0
    84f0:	05832000 	streq	r2, [r3]
    84f4:	e5923000 	ldr	r3, [r2]
    84f8:	e0822103 	add	r2, r2, r3, lsl #2
    84fc:	eafffff4 	b	84d4 <tagLoop$>
    8500:	0000b000 	.word	0x0000b000
